target datalayout = "e-m:e-p270:32:32-p271:32:32-p272:64:64-i64:64-i128:128-f80:128-n8:16:32:64-S128"
target triple = "x86_64-pc-linux-gnu"

%struct.Coeffs = type { ptr, i32, i32 }
%struct.AVComplexFloat = type { float, float }

; Function Attrs: nounwind uwtable
define internal void @cqt_calc(ptr noundef %0, ptr noundef %1, ptr noundef %2, i32 noundef %3, i32 noundef %4) #1 {
  %6 = alloca ptr, align 8
  %7 = alloca ptr, align 8
  %8 = alloca ptr, align 8
  %9 = alloca i32, align 4
  %10 = alloca i32, align 4
  %11 = alloca i32, align 4
  %12 = alloca i32, align 4
  %13 = alloca i32, align 4
  %14 = alloca i32, align 4
  %15 = alloca %struct.AVComplexFloat, align 4
  %16 = alloca %struct.AVComplexFloat, align 4
  %17 = alloca %struct.AVComplexFloat, align 4
  %18 = alloca %struct.AVComplexFloat, align 4
  %19 = alloca float, align 4
  store ptr %0, ptr %6, align 8, !tbaa !138
  store ptr %1, ptr %7, align 8, !tbaa !138
  store ptr %2, ptr %8, align 8, !tbaa !139
  store i32 %3, ptr %9, align 4, !tbaa !50
  store i32 %4, ptr %10, align 4, !tbaa !50
  call void @llvm.lifetime.start.p0(i64 4, ptr %11) #12
  call void @llvm.lifetime.start.p0(i64 4, ptr %12) #12
  call void @llvm.lifetime.start.p0(i64 4, ptr %13) #12
  call void @llvm.lifetime.start.p0(i64 4, ptr %14) #12
  store i32 0, ptr %11, align 4, !tbaa !50
  br label %20

20:                                               ; preds = %154, %5
  %21 = load i32, ptr %11, align 4, !tbaa !50
  %22 = load i32, ptr %9, align 4, !tbaa !50
  %23 = icmp slt i32 %21, %22
  br i1 %23, label %24, label %157

24:                                               ; preds = %20
  call void @llvm.lifetime.start.p0(i64 8, ptr %15) #12
  call void @llvm.lifetime.start.p0(i64 8, ptr %16) #12
  call void @llvm.lifetime.start.p0(i64 8, ptr %17) #12
  call void @llvm.memset.p0.i64(ptr align 4 %17, i8 0, i64 8, i1 false)
  call void @llvm.lifetime.start.p0(i64 8, ptr %18) #12
  call void @llvm.memset.p0.i64(ptr align 4 %18, i8 0, i64 8, i1 false)
  store i32 0, ptr %12, align 4, !tbaa !50
  br label %25

25:                                               ; preds = %96, %24
  %26 = load i32, ptr %12, align 4, !tbaa !50
  %27 = load ptr, ptr %8, align 8, !tbaa !139
  %28 = load i32, ptr %11, align 4, !tbaa !50
  %29 = sext i32 %28 to i64
  %30 = getelementptr inbounds %struct.Coeffs, ptr %27, i64 %29
  %31 = getelementptr inbounds nuw %struct.Coeffs, ptr %30, i32 0, i32 2
  %32 = load i32, ptr %31, align 4, !tbaa !140
  %33 = icmp slt i32 %26, %32
  br i1 %33, label %34, label %99

34:                                               ; preds = %25
  call void @llvm.lifetime.start.p0(i64 4, ptr %19) #12
  %35 = load ptr, ptr %8, align 8, !tbaa !139
  %36 = load i32, ptr %11, align 4, !tbaa !50
  %37 = sext i32 %36 to i64
  %38 = getelementptr inbounds %struct.Coeffs, ptr %35, i64 %37
  %39 = getelementptr inbounds nuw %struct.Coeffs, ptr %38, i32 0, i32 0
  %40 = load ptr, ptr %39, align 8, !tbaa !142
  %41 = load i32, ptr %12, align 4, !tbaa !50
  %42 = sext i32 %41 to i64
  %43 = getelementptr inbounds float, ptr %40, i64 %42
  %44 = load float, ptr %43, align 4, !tbaa !70
  store float %44, ptr %19, align 4, !tbaa !70
  %45 = load ptr, ptr %8, align 8, !tbaa !139
  %46 = load i32, ptr %11, align 4, !tbaa !50
  %47 = sext i32 %46 to i64
  %48 = getelementptr inbounds %struct.Coeffs, ptr %45, i64 %47
  %49 = getelementptr inbounds nuw %struct.Coeffs, ptr %48, i32 0, i32 1
  %50 = load i32, ptr %49, align 8, !tbaa !143
  %51 = load i32, ptr %12, align 4, !tbaa !50
  %52 = add nsw i32 %50, %51
  store i32 %52, ptr %13, align 4, !tbaa !50
  %53 = load i32, ptr %10, align 4, !tbaa !50
  %54 = load i32, ptr %13, align 4, !tbaa !50
  %55 = sub nsw i32 %53, %54
  store i32 %55, ptr %14, align 4, !tbaa !50
  %56 = load float, ptr %19, align 4, !tbaa !70
  %57 = load ptr, ptr %7, align 8, !tbaa !138
  %58 = load i32, ptr %13, align 4, !tbaa !50
  %59 = sext i32 %58 to i64
  %60 = getelementptr inbounds %struct.AVComplexFloat, ptr %57, i64 %59
  %61 = getelementptr inbounds nuw %struct.AVComplexFloat, ptr %60, i32 0, i32 0
  %62 = load float, ptr %61, align 4, !tbaa !144
  %63 = getelementptr inbounds nuw %struct.AVComplexFloat, ptr %17, i32 0, i32 0
  %64 = load float, ptr %63, align 4, !tbaa !144
  %65 = call nsz float @llvm.fmuladd.f32(float %56, float %62, float %64)
  store float %65, ptr %63, align 4, !tbaa !144
  %66 = load float, ptr %19, align 4, !tbaa !70
  %67 = load ptr, ptr %7, align 8, !tbaa !138
  %68 = load i32, ptr %13, align 4, !tbaa !50
  %69 = sext i32 %68 to i64
  %70 = getelementptr inbounds %struct.AVComplexFloat, ptr %67, i64 %69
  %71 = getelementptr inbounds nuw %struct.AVComplexFloat, ptr %70, i32 0, i32 1
  %72 = load float, ptr %71, align 4, !tbaa !146
  %73 = getelementptr inbounds nuw %struct.AVComplexFloat, ptr %17, i32 0, i32 1
  %74 = load float, ptr %73, align 4, !tbaa !146
  %75 = call nsz float @llvm.fmuladd.f32(float %66, float %72, float %74)
  store float %75, ptr %73, align 4, !tbaa !146
  %76 = load float, ptr %19, align 4, !tbaa !70
  %77 = load ptr, ptr %7, align 8, !tbaa !138
  %78 = load i32, ptr %14, align 4, !tbaa !50
  %79 = sext i32 %78 to i64
  %80 = getelementptr inbounds %struct.AVComplexFloat, ptr %77, i64 %79
  %81 = getelementptr inbounds nuw %struct.AVComplexFloat, ptr %80, i32 0, i32 0
  %82 = load float, ptr %81, align 4, !tbaa !144
  %83 = getelementptr inbounds nuw %struct.AVComplexFloat, ptr %18, i32 0, i32 0
  %84 = load float, ptr %83, align 4, !tbaa !144
  %85 = call nsz float @llvm.fmuladd.f32(float %76, float %82, float %84)
  store float %85, ptr %83, align 4, !tbaa !144
  %86 = load float, ptr %19, align 4, !tbaa !70
  %87 = load ptr, ptr %7, align 8, !tbaa !138
  %88 = load i32, ptr %14, align 4, !tbaa !50
  %89 = sext i32 %88 to i64
  %90 = getelementptr inbounds %struct.AVComplexFloat, ptr %87, i64 %89
  %91 = getelementptr inbounds nuw %struct.AVComplexFloat, ptr %90, i32 0, i32 1
  %92 = load float, ptr %91, align 4, !tbaa !146
  %93 = getelementptr inbounds nuw %struct.AVComplexFloat, ptr %18, i32 0, i32 1
  %94 = load float, ptr %93, align 4, !tbaa !146
  %95 = call nsz float @llvm.fmuladd.f32(float %86, float %92, float %94)
  store float %95, ptr %93, align 4, !tbaa !146
  call void @llvm.lifetime.end.p0(i64 4, ptr %19) #12
  br label %96

96:                                               ; preds = %34
  %97 = load i32, ptr %12, align 4, !tbaa !50
  %98 = add nsw i32 %97, 1
  store i32 %98, ptr %12, align 4, !tbaa !50
  br label %25, !llvm.loop !147

99:                                               ; preds = %25
  %100 = getelementptr inbounds nuw %struct.AVComplexFloat, ptr %17, i32 0, i32 0
  %101 = load float, ptr %100, align 4, !tbaa !144
  %102 = getelementptr inbounds nuw %struct.AVComplexFloat, ptr %18, i32 0, i32 0
  %103 = load float, ptr %102, align 4, !tbaa !144
  %104 = fadd nsz float %101, %103
  %105 = getelementptr inbounds nuw %struct.AVComplexFloat, ptr %15, i32 0, i32 0
  store float %104, ptr %105, align 4, !tbaa !144
  %106 = getelementptr inbounds nuw %struct.AVComplexFloat, ptr %17, i32 0, i32 1
  %107 = load float, ptr %106, align 4, !tbaa !146
  %108 = getelementptr inbounds nuw %struct.AVComplexFloat, ptr %18, i32 0, i32 1
  %109 = load float, ptr %108, align 4, !tbaa !146
  %110 = fsub nsz float %107, %109
  %111 = getelementptr inbounds nuw %struct.AVComplexFloat, ptr %15, i32 0, i32 1
  store float %110, ptr %111, align 4, !tbaa !146
  %112 = getelementptr inbounds nuw %struct.AVComplexFloat, ptr %18, i32 0, i32 1
  %113 = load float, ptr %112, align 4, !tbaa !146
  %114 = getelementptr inbounds nuw %struct.AVComplexFloat, ptr %17, i32 0, i32 1
  %115 = load float, ptr %114, align 4, !tbaa !146
  %116 = fadd nsz float %113, %115
  %117 = getelementptr inbounds nuw %struct.AVComplexFloat, ptr %16, i32 0, i32 0
  store float %116, ptr %117, align 4, !tbaa !144
  %118 = getelementptr inbounds nuw %struct.AVComplexFloat, ptr %18, i32 0, i32 0
  %119 = load float, ptr %118, align 4, !tbaa !144
  %120 = getelementptr inbounds nuw %struct.AVComplexFloat, ptr %17, i32 0, i32 0
  %121 = load float, ptr %120, align 4, !tbaa !144
  %122 = fsub nsz float %119, %121
  %123 = getelementptr inbounds nuw %struct.AVComplexFloat, ptr %16, i32 0, i32 1
  store float %122, ptr %123, align 4, !tbaa !146
  %124 = getelementptr inbounds nuw %struct.AVComplexFloat, ptr %15, i32 0, i32 0
  %125 = load float, ptr %124, align 4, !tbaa !144
  %126 = getelementptr inbounds nuw %struct.AVComplexFloat, ptr %15, i32 0, i32 0
  %127 = load float, ptr %126, align 4, !tbaa !144
  %128 = getelementptr inbounds nuw %struct.AVComplexFloat, ptr %15, i32 0, i32 1
  %129 = load float, ptr %128, align 4, !tbaa !146
  %130 = getelementptr inbounds nuw %struct.AVComplexFloat, ptr %15, i32 0, i32 1
  %131 = load float, ptr %130, align 4, !tbaa !146
  %132 = fmul nsz float %129, %131
  %133 = call nsz float @llvm.fmuladd.f32(float %125, float %127, float %132)
  %134 = load ptr, ptr %6, align 8, !tbaa !138
  %135 = load i32, ptr %11, align 4, !tbaa !50
  %136 = sext i32 %135 to i64
  %137 = getelementptr inbounds %struct.AVComplexFloat, ptr %134, i64 %136
  %138 = getelementptr inbounds nuw %struct.AVComplexFloat, ptr %137, i32 0, i32 0
  store float %133, ptr %138, align 4, !tbaa !144
  %139 = getelementptr inbounds nuw %struct.AVComplexFloat, ptr %16, i32 0, i32 0
  %140 = load float, ptr %139, align 4, !tbaa !144
  %141 = getelementptr inbounds nuw %struct.AVComplexFloat, ptr %16, i32 0, i32 0
  %142 = load float, ptr %141, align 4, !tbaa !144
  %143 = getelementptr inbounds nuw %struct.AVComplexFloat, ptr %16, i32 0, i32 1
  %144 = load float, ptr %143, align 4, !tbaa !146
  %145 = getelementptr inbounds nuw %struct.AVComplexFloat, ptr %16, i32 0, i32 1
  %146 = load float, ptr %145, align 4, !tbaa !146
  %147 = fmul nsz float %144, %146
  %148 = call nsz float @llvm.fmuladd.f32(float %140, float %142, float %147)
  %149 = load ptr, ptr %6, align 8, !tbaa !138
  %150 = load i32, ptr %11, align 4, !tbaa !50
  %151 = sext i32 %150 to i64
  %152 = getelementptr inbounds %struct.AVComplexFloat, ptr %149, i64 %151
  %153 = getelementptr inbounds nuw %struct.AVComplexFloat, ptr %152, i32 0, i32 1
  store float %148, ptr %153, align 4, !tbaa !146
  call void @llvm.lifetime.end.p0(i64 8, ptr %18) #12
  call void @llvm.lifetime.end.p0(i64 8, ptr %17) #12
  call void @llvm.lifetime.end.p0(i64 8, ptr %16) #12
  call void @llvm.lifetime.end.p0(i64 8, ptr %15) #12
  br label %154

154:                                              ; preds = %99
  %155 = load i32, ptr %11, align 4, !tbaa !50
  %156 = add nsw i32 %155, 1
  store i32 %156, ptr %11, align 4, !tbaa !50
  br label %20, !llvm.loop !148

157:                                              ; preds = %20
  call void @llvm.lifetime.end.p0(i64 4, ptr %14) #12
  call void @llvm.lifetime.end.p0(i64 4, ptr %13) #12
  call void @llvm.lifetime.end.p0(i64 4, ptr %12) #12
  call void @llvm.lifetime.end.p0(i64 4, ptr %11) #12
  ret void
}