; Function Attrs: nofree norecurse nosync nounwind memory(read, argmem: readwrite, inaccessiblemem: none) uwtable
define internal void @cqt_calc(ptr noundef writeonly captures(none) %0, ptr noundef readonly captures(none) %1, ptr noundef readonly captures(none) %2, i32 noundef %3, i32 noundef %4) #6 {
  %6 = icmp sgt i32 %3, 0
  br i1 %6, label %.preheader.preheader, label %._crit_edge58

.preheader.preheader:                             ; preds = %5
  %7 = sext i32 %4 to i64
  %wide.trip.count66 = zext nneg i32 %3 to i64
  br label %.preheader

.preheader:                                       ; preds = %.preheader.preheader, %._crit_edge
  %indvars.iv63 = phi i64 [ 0, %.preheader.preheader ], [ %indvars.iv.next64, %._crit_edge ]
  %8 = getelementptr inbounds nuw %struct.Coeffs, ptr %2, i64 %indvars.iv63
  %9 = getelementptr inbounds nuw i8, ptr %8, i64 12
  %10 = load i32, ptr %9, align 4, !tbaa !105
  %11 = icmp sgt i32 %10, 0
  br i1 %11, label %.lr.ph, label %._crit_edge

.lr.ph:                                           ; preds = %.preheader
  %12 = load ptr, ptr %8, align 8, !tbaa !106
  %13 = getelementptr inbounds nuw i8, ptr %8, i64 8
  %14 = load i32, ptr %13, align 8, !tbaa !103
  %15 = sext i32 %14 to i64
  %wide.trip.count = zext nneg i32 %10 to i64
  br label %16

16:                                               ; preds = %.lr.ph, %16
  %indvars.iv = phi i64 [ 0, %.lr.ph ], [ %indvars.iv.next, %16 ]
  %.sroa.7.152 = phi float [ 0.000000e+00, %.lr.ph ], [ %32, %16 ]
  %.sroa.0.151 = phi float [ 0.000000e+00, %.lr.ph ], [ %29, %16 ]
  %.sroa.711.150 = phi float [ 0.000000e+00, %.lr.ph ], [ %26, %16 ]
  %.sroa.08.149 = phi float [ 0.000000e+00, %.lr.ph ], [ %23, %16 ]
  %17 = getelementptr inbounds nuw float, ptr %12, i64 %indvars.iv
  %18 = load float, ptr %17, align 4, !tbaa !61
  %19 = add nsw i64 %indvars.iv, %15
  %20 = sub nsw i64 %7, %19
  %21 = getelementptr inbounds %struct.AVComplexFloat, ptr %1, i64 %19
  %22 = load float, ptr %21, align 4, !tbaa !132
  %23 = tail call nsz float @llvm.fmuladd.f32(float %18, float %22, float %.sroa.08.149)
  %24 = getelementptr inbounds nuw i8, ptr %21, i64 4
  %25 = load float, ptr %24, align 4, !tbaa !134
  %26 = tail call nsz float @llvm.fmuladd.f32(float %18, float %25, float %.sroa.711.150)
  %27 = getelementptr inbounds %struct.AVComplexFloat, ptr %1, i64 %20
  %28 = load float, ptr %27, align 4, !tbaa !132
  %29 = tail call nsz float @llvm.fmuladd.f32(float %18, float %28, float %.sroa.0.151)
  %30 = getelementptr inbounds nuw i8, ptr %27, i64 4
  %31 = load float, ptr %30, align 4, !tbaa !134
  %32 = tail call nsz float @llvm.fmuladd.f32(float %18, float %31, float %.sroa.7.152)
  %indvars.iv.next = add nuw nsw i64 %indvars.iv, 1
  %exitcond.not = icmp eq i64 %indvars.iv.next, %wide.trip.count
  br i1 %exitcond.not, label %._crit_edge, label %16, !llvm.loop !135

._crit_edge:                                      ; preds = %16, %.preheader
  %.sroa.08.1.lcssa = phi float [ 0.000000e+00, %.preheader ], [ %23, %16 ]
  %.sroa.711.1.lcssa = phi float [ 0.000000e+00, %.preheader ], [ %26, %16 ]
  %.sroa.0.1.lcssa = phi float [ 0.000000e+00, %.preheader ], [ %29, %16 ]
  %.sroa.7.1.lcssa = phi float [ 0.000000e+00, %.preheader ], [ %32, %16 ]
  %33 = fadd nsz float %.sroa.08.1.lcssa, %.sroa.0.1.lcssa
  %34 = fsub nsz float %.sroa.711.1.lcssa, %.sroa.7.1.lcssa
  %35 = fadd nsz float %.sroa.711.1.lcssa, %.sroa.7.1.lcssa
  %36 = fsub nsz float %.sroa.0.1.lcssa, %.sroa.08.1.lcssa
  %37 = fmul nsz float %34, %34
  %38 = tail call nsz float @llvm.fmuladd.f32(float %33, float %33, float %37)
  %39 = getelementptr inbounds nuw %struct.AVComplexFloat, ptr %0, i64 %indvars.iv63
  store float %38, ptr %39, align 4, !tbaa !132
  %40 = fmul nsz float %36, %36
  %41 = tail call nsz float @llvm.fmuladd.f32(float %35, float %35, float %40)
  %42 = getelementptr inbounds nuw i8, ptr %39, i64 4
  store float %41, ptr %42, align 4, !tbaa !134
  %indvars.iv.next64 = add nuw nsw i64 %indvars.iv63, 1
  %exitcond67.not = icmp eq i64 %indvars.iv.next64, %wide.trip.count66
  br i1 %exitcond67.not, label %._crit_edge58, label %.preheader, !llvm.loop !136

._crit_edge58:                                    ; preds = %._crit_edge, %5
  ret void
}